target datalayout = "e-m:e-p270:32:32-p271:32:32-p272:64:64-i64:64-i128:128-f80:128-n8:16:32:64-S128"
target triple = "x86_64-pc-linux-gnu"

%"struct.(anonymous namespace)::SectionEntry" = type <{ ptr, [8 x i8], i64, i64, i64, i64, i32, i32, i16, [6 x i8] }>

@.str.9 = private unnamed_addr constant [46 x i8] c"Section raw data overflowed this object file.\00", align 1

; Function Attrs: mustprogress nounwind uwtable
define internal noundef i64 @_ZN12_GLOBAL__N_112SectionEntry17advanceFileOffsetEmm(ptr noundef nonnull align 8 dereferenceable(58) %0, i64 noundef %1, i64 noundef %2) unnamed_addr #0 align 2 {
  %4 = alloca ptr, align 8
  %5 = alloca i64, align 8
  %6 = alloca i64, align 8
  %7 = alloca i64, align 8
  store ptr %0, ptr %4, align 8
  store i64 %1, ptr %5, align 8
  store i64 %2, ptr %6, align 8
  %8 = load ptr, ptr %4, align 8
  %9 = load i64, ptr %6, align 8
  %10 = getelementptr inbounds nuw %"struct.(anonymous namespace)::SectionEntry", ptr %8, i32 0, i32 4
  store i64 %9, ptr %10, align 8
  %11 = load i64, ptr %6, align 8
  %12 = getelementptr inbounds nuw %"struct.(anonymous namespace)::SectionEntry", ptr %8, i32 0, i32 3
  %13 = load i64, ptr %12, align 8
  %14 = add i64 %11, %13
  store i64 %14, ptr %7, align 8
  %15 = load i64, ptr %7, align 8
  %16 = load i64, ptr %5, align 8
  %17 = icmp ugt i64 %15, %16
  br i1 %17, label %18, label %19

18:                                               ; preds = %3
  call void @_ZN4llvm18report_fatal_errorEPKcb(ptr noundef @.str.9, i1 noundef zeroext true) #16
  unreachable

19:                                               ; preds = %3
  %20 = load i64, ptr %7, align 8
  ret i64 %20
}