; Function Attrs: mustprogress nounwind uwtable
define internal noundef i64 @_ZN12_GLOBAL__N_112SectionEntry17advanceFileOffsetEmm(ptr nocapture noundef nonnull align 8 dereferenceable(58) %0, i64 noundef %1, i64 noundef %2) unnamed_addr #0 align 2 {
  %4 = getelementptr inbounds nuw i8, ptr %0, i64 32
  store i64 %2, ptr %4, align 8
  %5 = getelementptr inbounds nuw i8, ptr %0, i64 24
  %6 = load i64, ptr %5, align 8
  %7 = add i64 %6, %2
  %8 = icmp ugt i64 %7, %1
  br i1 %8, label %9, label %10

9:                                                ; preds = %3
  tail call void @_ZN4llvm18report_fatal_errorEPKcb(ptr noundef nonnull @.str.9, i1 noundef zeroext true) #25
  unreachable

10:                                               ; preds = %3
  ret i64 %7
}